; Function Attrs: nounwind uwtable
define ptr @l_Array_foldlMUnsafe_fold___at_Std_Tactic_BVDecide_LRAT_Internal_DefaultFormula_ofArray___spec__1___boxed(ptr noundef %0, ptr noundef %1, ptr noundef %2, ptr noundef %3, ptr noundef %4) local_unnamed_addr #1 {
  %6 = getelementptr i8, ptr %2, i64 8
  %.val = load i64, ptr %6, align 8, !tbaa !12
  %7 = ptrtoint ptr %2 to i64
  %8 = and i64 %7, 1
  %.not = icmp eq i64 %8, 0
  br i1 %.not, label %9, label %lean_dec.exit13

9:                                                ; preds = %5
  %10 = load i32, ptr %2, align 4, !tbaa !4
  %11 = icmp sgt i32 %10, 1
  br i1 %11, label %12, label %14, !prof !11

12:                                               ; preds = %9
  %13 = add nsw i32 %10, -1
  store i32 %13, ptr %2, align 4, !tbaa !4
  br label %lean_dec.exit13

14:                                               ; preds = %9
  %.not.i = icmp eq i32 %10, 0
  br i1 %.not.i, label %lean_dec.exit13, label %15

15:                                               ; preds = %14
  tail call void @lean_dec_ref_cold(ptr noundef nonnull %2) #5
  br label %lean_dec.exit13

lean_dec.exit13:                                  ; preds = %15, %14, %12, %5
  %16 = getelementptr i8, ptr %3, i64 8
  %.val20 = load i64, ptr %16, align 8, !tbaa !12
  %17 = ptrtoint ptr %3 to i64
  %18 = and i64 %17, 1
  %.not22 = icmp eq i64 %18, 0
  br i1 %.not22, label %19, label %lean_dec.exit12

19:                                               ; preds = %lean_dec.exit13
  %20 = load i32, ptr %3, align 4, !tbaa !4
  %21 = icmp sgt i32 %20, 1
  br i1 %21, label %22, label %24, !prof !11

22:                                               ; preds = %19
  %23 = add nsw i32 %20, -1
  store i32 %23, ptr %3, align 4, !tbaa !4
  br label %lean_dec.exit12

24:                                               ; preds = %19
  %.not.i14 = icmp eq i32 %20, 0
  br i1 %.not.i14, label %lean_dec.exit12, label %25

25:                                               ; preds = %24
  tail call void @lean_dec_ref_cold(ptr noundef nonnull %3) #5
  br label %lean_dec.exit12

lean_dec.exit12:                                  ; preds = %25, %24, %22, %lean_dec.exit13
  %.not27.i = icmp eq i64 %.val, %.val20
  br i1 %.not27.i, label %l_Array_foldlMUnsafe_fold___at_Std_Tactic_BVDecide_LRAT_Internal_DefaultFormula_ofArray___spec__1.exit, label %.lr.ph.i

.lr.ph.i:                                         ; preds = %lean_dec.exit12
  %26 = getelementptr inbounds nuw i8, ptr %1, i64 24
  br label %27

27:                                               ; preds = %47, %.lr.ph.i
  %.01529.i = phi i64 [ %.val, %.lr.ph.i ], [ %49, %47 ]
  %.01728.i = phi ptr [ %4, %.lr.ph.i ], [ %48, %47 ]
  %28 = getelementptr inbounds nuw [0 x ptr], ptr %26, i64 0, i64 %.01529.i
  %29 = load ptr, ptr %28, align 8, !tbaa !9
  %30 = ptrtoint ptr %29 to i64
  %31 = and i64 %30, 1
  %.not.i19.i = icmp eq i64 %31, 0
  br i1 %.not.i19.i, label %32, label %lean_array_uget.exit.i

32:                                               ; preds = %27
  %.val.i.i.i = load i32, ptr %29, align 4, !tbaa !4
  %33 = icmp sgt i32 %.val.i.i.i, 0
  br i1 %33, label %34, label %36, !prof !11

34:                                               ; preds = %32
  %35 = add nuw i32 %.val.i.i.i, 1
  store i32 %35, ptr %29, align 4, !tbaa !4
  br label %39

36:                                               ; preds = %32
  %.not.i.i.i = icmp eq i32 %.val.i.i.i, 0
  br i1 %.not.i.i.i, label %39, label %37

37:                                               ; preds = %36
  tail call void @lean_inc_ref_cold(ptr noundef nonnull %29) #5
  br label %39

lean_array_uget.exit.i:                           ; preds = %27
  %38 = tail call ptr @l_Std_Tactic_BVDecide_LRAT_Internal_DefaultFormula_ofArray__fold__fn___rarg(ptr noundef %.01728.i, ptr noundef %29)
  br label %47

39:                                               ; preds = %37, %36, %34
  %40 = tail call ptr @l_Std_Tactic_BVDecide_LRAT_Internal_DefaultFormula_ofArray__fold__fn___rarg(ptr noundef %.01728.i, ptr noundef nonnull %29)
  %41 = load i32, ptr %29, align 4, !tbaa !4
  %42 = icmp sgt i32 %41, 1
  br i1 %42, label %43, label %45, !prof !11

43:                                               ; preds = %39
  %44 = add nsw i32 %41, -1
  store i32 %44, ptr %29, align 4, !tbaa !4
  br label %47

45:                                               ; preds = %39
  %.not.i.i = icmp eq i32 %41, 0
  br i1 %.not.i.i, label %47, label %46

46:                                               ; preds = %45
  tail call void @lean_dec_ref_cold(ptr noundef nonnull %29) #5
  br label %47

47:                                               ; preds = %46, %45, %43, %lean_array_uget.exit.i
  %48 = phi ptr [ %38, %lean_array_uget.exit.i ], [ %40, %43 ], [ %40, %45 ], [ %40, %46 ]
  %49 = add i64 %.01529.i, 1
  %.not.i21 = icmp eq i64 %49, %.val20
  br i1 %.not.i21, label %l_Array_foldlMUnsafe_fold___at_Std_Tactic_BVDecide_LRAT_Internal_DefaultFormula_ofArray___spec__1.exit, label %27

l_Array_foldlMUnsafe_fold___at_Std_Tactic_BVDecide_LRAT_Internal_DefaultFormula_ofArray___spec__1.exit: ; preds = %47, %lean_dec.exit12
  %.017.lcssa.i = phi ptr [ %4, %lean_dec.exit12 ], [ %48, %47 ]
  %50 = ptrtoint ptr %1 to i64
  %51 = and i64 %50, 1
  %.not23 = icmp eq i64 %51, 0
  br i1 %.not23, label %52, label %lean_dec.exit11

52:                                               ; preds = %l_Array_foldlMUnsafe_fold___at_Std_Tactic_BVDecide_LRAT_Internal_DefaultFormula_ofArray___spec__1.exit
  %53 = load i32, ptr %1, align 4, !tbaa !4
  %54 = icmp sgt i32 %53, 1
  br i1 %54, label %55, label %57, !prof !11

55:                                               ; preds = %52
  %56 = add nsw i32 %53, -1
  store i32 %56, ptr %1, align 4, !tbaa !4
  br label %lean_dec.exit11

57:                                               ; preds = %52
  %.not.i16 = icmp eq i32 %53, 0
  br i1 %.not.i16, label %lean_dec.exit11, label %58

58:                                               ; preds = %57
  tail call void @lean_dec_ref_cold(ptr noundef nonnull %1) #5
  br label %lean_dec.exit11

lean_dec.exit11:                                  ; preds = %58, %57, %55, %l_Array_foldlMUnsafe_fold___at_Std_Tactic_BVDecide_LRAT_Internal_DefaultFormula_ofArray___spec__1.exit
  %59 = ptrtoint ptr %0 to i64
  %60 = and i64 %59, 1
  %.not24 = icmp eq i64 %60, 0
  br i1 %.not24, label %61, label %lean_dec.exit

61:                                               ; preds = %lean_dec.exit11
  %62 = load i32, ptr %0, align 4, !tbaa !4
  %63 = icmp sgt i32 %62, 1
  br i1 %63, label %64, label %66, !prof !11

64:                                               ; preds = %61
  %65 = add nsw i32 %62, -1
  store i32 %65, ptr %0, align 4, !tbaa !4
  br label %lean_dec.exit

66:                                               ; preds = %61
  %.not.i18 = icmp eq i32 %62, 0
  br i1 %.not.i18, label %lean_dec.exit, label %67

67:                                               ; preds = %66
  tail call void @lean_dec_ref_cold(ptr noundef nonnull %0) #5
  br label %lean_dec.exit

lean_dec.exit:                                    ; preds = %67, %66, %64, %lean_dec.exit11
  ret ptr %.017.lcssa.i
}